target datalayout = "e-m:e-p270:32:32-p271:32:32-p272:64:64-i64:64-i128:128-f80:128-n8:16:32:64-S128"
target triple = "x86_64-pc-linux-gnu"

@.str.1 = private unnamed_addr constant [108 x i8] c"generated/home/dtcxzyw/WorkSpace/Projects/compilers/llvm-opt-benchmark/bench/hdf5/hdf5/src/H5Zscaleoffset.c\00", align 1
@H5E_BADTYPE_g = external global i64, align 8
@H5E_PLINE_g = external global i64, align 8
@__func__.H5Z__scaleoffset_get_type = private unnamed_addr constant [26 x i8] c"H5Z__scaleoffset_get_type\00", align 1
@.str.18 = private unnamed_addr constant [36 x i8] c"cannot find matched memory datatype\00", align 1

; Function Attrs: nounwind uwtable
define internal i32 @H5Z__scaleoffset_get_type(i32 noundef %0, i32 noundef %1, i32 noundef %2) #0 {
  %4 = alloca i32, align 4
  %5 = alloca i32, align 4
  %6 = alloca i32, align 4
  %7 = alloca i32, align 4
  %8 = alloca i32, align 4
  %9 = alloca i8, align 1
  store i32 %0, ptr %4, align 4
  store i32 %1, ptr %5, align 4
  store i32 %2, ptr %6, align 4
  store i32 0, ptr %7, align 4
  store i32 0, ptr %8, align 4
  store i8 0, ptr %9, align 1
  %10 = load i32, ptr %4, align 4
  %11 = icmp eq i32 %10, 0
  br i1 %11, label %12, label %97

12:                                               ; preds = %3
  %13 = load i32, ptr %6, align 4
  %14 = icmp eq i32 %13, 0
  br i1 %14, label %15, label %54

15:                                               ; preds = %12
  %16 = load i32, ptr %5, align 4
  %17 = zext i32 %16 to i64
  %18 = icmp eq i64 %17, 1
  br i1 %18, label %19, label %20

19:                                               ; preds = %15
  store i32 1, ptr %7, align 4
  br label %53

20:                                               ; preds = %15
  %21 = load i32, ptr %5, align 4
  %22 = zext i32 %21 to i64
  %23 = icmp eq i64 %22, 2
  br i1 %23, label %24, label %25

24:                                               ; preds = %20
  store i32 2, ptr %7, align 4
  br label %52

25:                                               ; preds = %20
  %26 = load i32, ptr %5, align 4
  %27 = zext i32 %26 to i64
  %28 = icmp eq i64 %27, 4
  br i1 %28, label %29, label %30

29:                                               ; preds = %25
  store i32 3, ptr %7, align 4
  br label %51

30:                                               ; preds = %25
  %31 = load i32, ptr %5, align 4
  %32 = zext i32 %31 to i64
  %33 = icmp eq i64 %32, 8
  br i1 %33, label %34, label %35

34:                                               ; preds = %30
  store i32 4, ptr %7, align 4
  br label %50

35:                                               ; preds = %30
  br label %36

36:                                               ; preds = %35
  br label %37

37:                                               ; preds = %36
  br label %38

38:                                               ; preds = %37
  %39 = load i64, ptr @H5E_PLINE_g, align 8
  %40 = load i64, ptr @H5E_BADTYPE_g, align 8
  %41 = call i32 (ptr, ptr, i32, i64, i64, ptr, ...) @H5E_printf_stack(ptr noundef @.str.1, ptr noundef @__func__.H5Z__scaleoffset_get_type, i32 noundef 825, i64 noundef %39, i64 noundef %40, ptr noundef @.str.18)
  br label %42

42:                                               ; preds = %38
  store i8 1, ptr %9, align 1
  %43 = load i8, ptr %9, align 1
  %44 = trunc i8 %43 to i1
  %45 = zext i1 %44 to i8
  store i8 %45, ptr %9, align 1
  br label %46

46:                                               ; preds = %42
  br label %47

47:                                               ; preds = %46
  store i32 0, ptr %8, align 4
  br label %129

48:                                               ; No predecessors!
  br label %49

49:                                               ; preds = %48
  br label %50

50:                                               ; preds = %49, %34
  br label %51

51:                                               ; preds = %50, %29
  br label %52

52:                                               ; preds = %51, %24
  br label %53

53:                                               ; preds = %52, %19
  br label %54

54:                                               ; preds = %53, %12
  %55 = load i32, ptr %6, align 4
  %56 = icmp eq i32 %55, 1
  br i1 %56, label %57, label %96

57:                                               ; preds = %54
  %58 = load i32, ptr %5, align 4
  %59 = zext i32 %58 to i64
  %60 = icmp eq i64 %59, 1
  br i1 %60, label %61, label %62

61:                                               ; preds = %57
  store i32 6, ptr %7, align 4
  br label %95

62:                                               ; preds = %57
  %63 = load i32, ptr %5, align 4
  %64 = zext i32 %63 to i64
  %65 = icmp eq i64 %64, 2
  br i1 %65, label %66, label %67

66:                                               ; preds = %62
  store i32 7, ptr %7, align 4
  br label %94

67:                                               ; preds = %62
  %68 = load i32, ptr %5, align 4
  %69 = zext i32 %68 to i64
  %70 = icmp eq i64 %69, 4
  br i1 %70, label %71, label %72

71:                                               ; preds = %67
  store i32 8, ptr %7, align 4
  br label %93

72:                                               ; preds = %67
  %73 = load i32, ptr %5, align 4
  %74 = zext i32 %73 to i64
  %75 = icmp eq i64 %74, 8
  br i1 %75, label %76, label %77

76:                                               ; preds = %72
  store i32 9, ptr %7, align 4
  br label %92

77:                                               ; preds = %72
  br label %78

78:                                               ; preds = %77
  br label %79

79:                                               ; preds = %78
  br label %80

80:                                               ; preds = %79
  %81 = load i64, ptr @H5E_PLINE_g, align 8
  %82 = load i64, ptr @H5E_BADTYPE_g, align 8
  %83 = call i32 (ptr, ptr, i32, i64, i64, ptr, ...) @H5E_printf_stack(ptr noundef @.str.1, ptr noundef @__func__.H5Z__scaleoffset_get_type, i32 noundef 842, i64 noundef %81, i64 noundef %82, ptr noundef @.str.18)
  br label %84

84:                                               ; preds = %80
  store i8 1, ptr %9, align 1
  %85 = load i8, ptr %9, align 1
  %86 = trunc i8 %85 to i1
  %87 = zext i1 %86 to i8
  store i8 %87, ptr %9, align 1
  br label %88

88:                                               ; preds = %84
  br label %89

89:                                               ; preds = %88
  store i32 0, ptr %8, align 4
  br label %129

90:                                               ; No predecessors!
  br label %91

91:                                               ; preds = %90
  br label %92

92:                                               ; preds = %91, %76
  br label %93

93:                                               ; preds = %92, %71
  br label %94

94:                                               ; preds = %93, %66
  br label %95

95:                                               ; preds = %94, %61
  br label %96

96:                                               ; preds = %95, %54
  br label %97

97:                                               ; preds = %96, %3
  %98 = load i32, ptr %4, align 4
  %99 = icmp eq i32 %98, 1
  br i1 %99, label %100, label %127

100:                                              ; preds = %97
  %101 = load i32, ptr %5, align 4
  %102 = zext i32 %101 to i64
  %103 = icmp eq i64 %102, 4
  br i1 %103, label %104, label %105

104:                                              ; preds = %100
  store i32 11, ptr %7, align 4
  br label %126

105:                                              ; preds = %100
  %106 = load i32, ptr %5, align 4
  %107 = zext i32 %106 to i64
  %108 = icmp eq i64 %107, 8
  br i1 %108, label %109, label %110

109:                                              ; preds = %105
  store i32 12, ptr %7, align 4
  br label %125

110:                                              ; preds = %105
  br label %111

111:                                              ; preds = %110
  br label %112

112:                                              ; preds = %111
  br label %113

113:                                              ; preds = %112
  %114 = load i64, ptr @H5E_PLINE_g, align 8
  %115 = load i64, ptr @H5E_BADTYPE_g, align 8
  %116 = call i32 (ptr, ptr, i32, i64, i64, ptr, ...) @H5E_printf_stack(ptr noundef @.str.1, ptr noundef @__func__.H5Z__scaleoffset_get_type, i32 noundef 852, i64 noundef %114, i64 noundef %115, ptr noundef @.str.18)
  br label %117

117:                                              ; preds = %113
  store i8 1, ptr %9, align 1
  %118 = load i8, ptr %9, align 1
  %119 = trunc i8 %118 to i1
  %120 = zext i1 %119 to i8
  store i8 %120, ptr %9, align 1
  br label %121

121:                                              ; preds = %117
  br label %122

122:                                              ; preds = %121
  store i32 0, ptr %8, align 4
  br label %129

123:                                              ; No predecessors!
  br label %124

124:                                              ; preds = %123
  br label %125

125:                                              ; preds = %124, %109
  br label %126

126:                                              ; preds = %125, %104
  br label %127

127:                                              ; preds = %126, %97
  %128 = load i32, ptr %7, align 4
  store i32 %128, ptr %8, align 4
  br label %129

129:                                              ; preds = %127, %122, %89, %47
  %130 = load i32, ptr %8, align 4
  ret i32 %130
}