; Function Attrs: nounwind uwtable
define internal fastcc range(i32 0, 13) i32 @H5Z__scaleoffset_get_type(i32 noundef %0, i32 noundef %1, i32 noundef %2) unnamed_addr #0 {
  switch i32 %0, label %.thread25 [
    i32 0, label %4
    i32 1, label %17
  ]

4:                                                ; preds = %3
  switch i32 %2, label %.thread25 [
    i32 0, label %5
    i32 1, label %11
  ]

5:                                                ; preds = %4
  %switch.tableidx = add i32 %1, -1
  %6 = icmp ult i32 %switch.tableidx, 8
  br i1 %6, label %switch.hole_check, label %7

7:                                                ; preds = %switch.hole_check, %5
  %8 = load i64, ptr @H5E_PLINE_g, align 8
  %9 = load i64, ptr @H5E_BADTYPE_g, align 8
  %10 = tail call i32 (ptr, ptr, i32, i64, i64, ptr, ...) @H5E_printf_stack(ptr noundef nonnull @.str.1, ptr noundef nonnull @__func__.H5Z__scaleoffset_get_type, i32 noundef 825, i64 noundef %8, i64 noundef %9, ptr noundef nonnull @.str.18) #12
  br label %.thread25

11:                                               ; preds = %4
  %switch.tableidx28 = add i32 %1, -1
  %12 = icmp ult i32 %switch.tableidx28, 8
  br i1 %12, label %switch.hole_check29, label %13

13:                                               ; preds = %switch.hole_check29, %11
  %14 = load i64, ptr @H5E_PLINE_g, align 8
  %15 = load i64, ptr @H5E_BADTYPE_g, align 8
  %16 = tail call i32 (ptr, ptr, i32, i64, i64, ptr, ...) @H5E_printf_stack(ptr noundef nonnull @.str.1, ptr noundef nonnull @__func__.H5Z__scaleoffset_get_type, i32 noundef 842, i64 noundef %14, i64 noundef %15, ptr noundef nonnull @.str.18) #12
  br label %.thread25

17:                                               ; preds = %3
  switch i32 %1, label %19 [
    i32 4, label %.thread25
    i32 8, label %18
  ]

18:                                               ; preds = %17
  br label %.thread25

19:                                               ; preds = %17
  %20 = load i64, ptr @H5E_PLINE_g, align 8
  %21 = load i64, ptr @H5E_BADTYPE_g, align 8
  %22 = tail call i32 (ptr, ptr, i32, i64, i64, ptr, ...) @H5E_printf_stack(ptr noundef nonnull @.str.1, ptr noundef nonnull @__func__.H5Z__scaleoffset_get_type, i32 noundef 852, i64 noundef %20, i64 noundef %21, ptr noundef nonnull @.str.18) #12
  br label %.thread25

switch.hole_check:                                ; preds = %5
  %switch.maskindex = trunc nuw i32 %switch.tableidx to i8
  %switch.shifted = lshr i8 -117, %switch.maskindex
  %switch.lobit = trunc i8 %switch.shifted to i1
  br i1 %switch.lobit, label %switch.lookup, label %7

switch.lookup:                                    ; preds = %switch.hole_check
  %23 = zext nneg i32 %switch.tableidx to i64
  %switch.gep = getelementptr inbounds [8 x i32], ptr @switch.table.H5Z__scaleoffset_get_type, i64 0, i64 %23
  %switch.load = load i32, ptr %switch.gep, align 4
  br label %.thread25

switch.hole_check29:                              ; preds = %11
  %switch.maskindex31 = trunc nuw i32 %switch.tableidx28 to i8
  %switch.shifted32 = lshr i8 -117, %switch.maskindex31
  %switch.lobit33 = trunc i8 %switch.shifted32 to i1
  br i1 %switch.lobit33, label %switch.lookup30, label %13

switch.lookup30:                                  ; preds = %switch.hole_check29
  %24 = zext nneg i32 %switch.tableidx28 to i64
  %switch.gep34 = getelementptr inbounds [8 x i32], ptr @switch.table.H5Z__scaleoffset_get_type.3, i64 0, i64 %24
  %switch.load35 = load i32, ptr %switch.gep34, align 4
  br label %.thread25

.thread25:                                        ; preds = %switch.lookup30, %switch.lookup, %3, %4, %18, %17, %19, %13, %7
  %.0 = phi i32 [ 0, %19 ], [ 0, %13 ], [ 0, %7 ], [ 12, %18 ], [ 11, %17 ], [ 0, %4 ], [ 0, %3 ], [ %switch.load, %switch.lookup ], [ %switch.load35, %switch.lookup30 ]
  ret i32 %.0
}